target datalayout = "e-m:e-p270:32:32-p271:32:32-p272:64:64-i64:64-i128:128-f80:128-n8:16:32:64-S128"
target triple = "x86_64-pc-linux-gnu"

%struct.darktable_t = type { %struct.dt_codepath_t, i32, i32, ptr, ptr, ptr, ptr, ptr, ptr, ptr, ptr, ptr, ptr, ptr, ptr, ptr, ptr, ptr, ptr, ptr, ptr, ptr, ptr, ptr, ptr, ptr, ptr, ptr, ptr, ptr, [64 x %struct.dt_pthread_mutex_t], %struct.dt_pthread_mutex_t, %struct.dt_pthread_mutex_t, %struct.dt_pthread_mutex_t, %struct.dt_pthread_mutex_t, %struct.dt_pthread_mutex_t, ptr, ptr, ptr, ptr, ptr, ptr, ptr, ptr, ptr, ptr, ptr, ptr, ptr, %struct.dt_lua_state_t, ptr, double, ptr, i32, [47 x i32], i32, i32, ptr, ptr, %struct.dt_sys_resources_t, %struct.dt_backthumb_t, %struct.dt_gimp_t }
%struct.dt_codepath_t = type { i8, [3 x i8] }
%struct.dt_pthread_mutex_t = type { %union.pthread_mutex_t }
%union.pthread_mutex_t = type { %struct.__pthread_mutex_s }
%struct.__pthread_mutex_s = type { i32, i32, i32, i32, i32, i16, i16, %struct.__pthread_internal_list }
%struct.__pthread_internal_list = type { ptr, ptr }
%struct.dt_lua_state_t = type { i32 }
%struct.dt_sys_resources_t = type { i64, i64, ptr, ptr, i32 }
%struct.dt_backthumb_t = type { double, double, i32, i32, i32, i32 }
%struct.dt_gimp_t = type { i32, ptr, ptr, i32, i32 }

@.str = private unnamed_addr constant [37 x i8] c"plugins/lighttable/collect/num_rules\00", align 1
@.str.1 = private unnamed_addr constant [33 x i8] c"plugins/lighttable/collect/item0\00", align 1
@darktable = external global %struct.darktable_t, align 8
@.str.2 = private unnamed_addr constant [41 x i8] c"[sql] %s:%d, function %s(): prepare \22%s\22\00", align 1
@.str.3 = private unnamed_addr constant [115 x i8] c"generated/home/dtcxzyw/WorkSpace/Projects/compilers/llvm-opt-benchmark/bench/darktable/darktable/src/common/film.c\00", align 1
@__FUNCTION__.dt_film_set_query = private unnamed_addr constant [18 x i8] c"dt_film_set_query\00", align 1
@.str.4 = private unnamed_addr constant [53 x i8] c"SELECT id, folder FROM main.film_rolls WHERE id = ?1\00", align 1
@stderr = external global ptr, align 8
@.str.5 = private unnamed_addr constant [53 x i8] c"sqlite3 error: %s:%d, function %s(), query \22%s\22: %s\0A\00", align 1
@.str.6 = private unnamed_addr constant [41 x i8] c"sqlite3 error: %s:%d, function %s(): %s\0A\00", align 1
@.str.7 = private unnamed_addr constant [35 x i8] c"plugins/lighttable/collect/string0\00", align 1

; Function Attrs: nounwind uwtable
define void @dt_film_set_query(i32 noundef %0) #0 {
  %2 = alloca i32, align 4
  %3 = alloca ptr, align 8
  %4 = alloca i32, align 4
  %5 = alloca i32, align 4
  store i32 %0, ptr %2, align 4, !tbaa !24
  call void @dt_conf_set_int(ptr noundef @.str, i32 noundef 1)
  call void @dt_conf_set_int(ptr noundef @.str.1, i32 noundef 0)
  call void @llvm.lifetime.start.p0(i64 8, ptr %3) #8
  br label %6

6:                                                ; preds = %1
  br label %7

7:                                                ; preds = %6
  %8 = load i32, ptr getelementptr inbounds nuw (%struct.darktable_t, ptr @darktable, i32 0, i32 2), align 8, !tbaa !25
  %9 = and i32 256, %8
  %10 = icmp ne i32 %9, 0
  br i1 %10, label %11, label %17

11:                                               ; preds = %7
  %12 = load i32, ptr getelementptr inbounds nuw (%struct.darktable_t, ptr @darktable, i32 0, i32 2), align 8, !tbaa !25
  %13 = xor i32 %12, -1
  %14 = and i32 0, %13
  %15 = icmp ne i32 %14, 0
  br i1 %15, label %17, label %16

16:                                               ; preds = %11
  call void (ptr, ...) @dt_print_ext(ptr noundef @.str.2, ptr noundef @.str.3, i32 noundef 79, ptr noundef @__FUNCTION__.dt_film_set_query, ptr noundef @.str.4)
  br label %17

17:                                               ; preds = %16, %11, %7
  br label %18

18:                                               ; preds = %17
  br label %19

19:                                               ; preds = %18
  call void @llvm.lifetime.start.p0(i64 4, ptr %4) #8
  %20 = load ptr, ptr getelementptr inbounds nuw (%struct.darktable_t, ptr @darktable, i32 0, i32 18), align 8, !tbaa !62
  %21 = call ptr @dt_database_get(ptr noundef %20)
  %22 = call i32 @sqlite3_prepare_v2(ptr noundef %21, ptr noundef @.str.4, i32 noundef -1, ptr noundef %3, ptr noundef null)
  store i32 %22, ptr %4, align 4, !tbaa !24
  %23 = load i32, ptr %4, align 4, !tbaa !24
  %24 = icmp ne i32 %23, 0
  br i1 %24, label %25, label %31

25:                                               ; preds = %19
  %26 = load ptr, ptr @stderr, align 8, !tbaa !63
  %27 = load ptr, ptr getelementptr inbounds nuw (%struct.darktable_t, ptr @darktable, i32 0, i32 18), align 8, !tbaa !62
  %28 = call ptr @dt_database_get(ptr noundef %27)
  %29 = call ptr @sqlite3_errmsg(ptr noundef %28)
  %30 = call i32 (ptr, ptr, ...) @fprintf(ptr noundef %26, ptr noundef @.str.5, ptr noundef @.str.3, i32 noundef 79, ptr noundef @__FUNCTION__.dt_film_set_query, ptr noundef @.str.4, ptr noundef %29) #8
  br label %31

31:                                               ; preds = %25, %19
  call void @llvm.lifetime.end.p0(i64 4, ptr %4) #8
  br label %32

32:                                               ; preds = %31
  br label %33

33:                                               ; preds = %32
  call void @llvm.lifetime.start.p0(i64 4, ptr %5) #8
  %34 = load ptr, ptr %3, align 8, !tbaa !65
  %35 = load i32, ptr %2, align 4, !tbaa !24
  %36 = call i32 @sqlite3_bind_int(ptr noundef %34, i32 noundef 1, i32 noundef %35)
  store i32 %36, ptr %5, align 4, !tbaa !24
  %37 = load i32, ptr %5, align 4, !tbaa !24
  %38 = icmp ne i32 %37, 0
  br i1 %38, label %39, label %45

39:                                               ; preds = %33
  %40 = load ptr, ptr @stderr, align 8, !tbaa !63
  %41 = load ptr, ptr getelementptr inbounds nuw (%struct.darktable_t, ptr @darktable, i32 0, i32 18), align 8, !tbaa !62
  %42 = call ptr @dt_database_get(ptr noundef %41)
  %43 = call ptr @sqlite3_errmsg(ptr noundef %42)
  %44 = call i32 (ptr, ptr, ...) @fprintf(ptr noundef %40, ptr noundef @.str.6, ptr noundef @.str.3, i32 noundef 81, ptr noundef @__FUNCTION__.dt_film_set_query, ptr noundef %43) #8
  br label %45

45:                                               ; preds = %39, %33
  call void @llvm.lifetime.end.p0(i64 4, ptr %5) #8
  %46 = load ptr, ptr %3, align 8, !tbaa !65
  %47 = call i32 @sqlite3_step(ptr noundef %46)
  %48 = icmp eq i32 %47, 100
  br i1 %48, label %49, label %52

49:                                               ; preds = %45
  %50 = load ptr, ptr %3, align 8, !tbaa !65
  %51 = call ptr @sqlite3_column_text(ptr noundef %50, i32 noundef 1)
  call void @dt_conf_set_string(ptr noundef @.str.7, ptr noundef %51)
  br label %52

52:                                               ; preds = %49, %45
  %53 = load ptr, ptr %3, align 8, !tbaa !65
  %54 = call i32 @sqlite3_finalize(ptr noundef %53)
  %55 = load ptr, ptr getelementptr inbounds nuw (%struct.darktable_t, ptr @darktable, i32 0, i32 21), align 8, !tbaa !67
  call void @dt_collection_update_query(ptr noundef %55, i32 noundef 1, i32 noundef 43, ptr noundef null)
  call void @llvm.lifetime.end.p0(i64 8, ptr %3) #8
  ret void
}